; Function Attrs: nounwind uwtable
define internal fastcc ptr @_Pickle_FastCall(ptr noundef %0, ptr noundef %1) unnamed_addr #0 {
  %3 = tail call ptr @PyObject_CallOneArg(ptr noundef %0, ptr noundef %1) #13
  %4 = load i32, ptr %1, align 8, !tbaa !42
  %.not.i = icmp sgt i32 %4, -1
  br i1 %.not.i, label %5, label %Py_DECREF.exit

5:                                                ; preds = %2
  %6 = add nsw i32 %4, -1
  store i32 %6, ptr %1, align 8, !tbaa !42
  %7 = icmp eq i32 %6, 0
  br i1 %7, label %8, label %Py_DECREF.exit

8:                                                ; preds = %5
  tail call void @_Py_Dealloc(ptr noundef nonnull %1) #13
  br label %Py_DECREF.exit

Py_DECREF.exit:                                   ; preds = %2, %5, %8
  ret ptr %3
}